target datalayout = "e-m:e-p270:32:32-p271:32:32-p272:64:64-i64:64-i128:128-f80:128-n8:16:32:64-S128"
target triple = "x86_64-pc-linux-gnu"

%struct._lv_file_explorer_t = type { %struct._lv_obj_t, ptr, ptr, ptr, ptr, ptr, ptr, ptr, ptr, ptr, ptr, ptr, ptr, ptr, ptr, ptr, [128 x i8], i32 }
%struct._lv_obj_t = type { ptr, ptr, ptr, ptr, ptr, %struct.lv_area_t, i32, i16, i16 }
%struct.lv_area_t = type { i32, i32, i32, i32 }

; Function Attrs: nounwind uwtable
define internal void @file_explorer_sort(ptr noundef %0) #0 {
  %2 = alloca ptr, align 8
  %3 = alloca ptr, align 8
  %4 = alloca i16, align 2
  store ptr %0, ptr %2, align 8, !tbaa !8
  br label %5

5:                                                ; preds = %1
  %6 = load ptr, ptr %2, align 8, !tbaa !8
  %7 = icmp ne ptr %6, null
  br i1 %7, label %12, label %8

8:                                                ; preds = %5
  br label %9

9:                                                ; preds = %8
  br label %10

10:                                               ; preds = %9
  br label %11

11:                                               ; preds = %10, %11
  br label %11

12:                                               ; preds = %5
  br label %13

13:                                               ; preds = %12
  call void @llvm.lifetime.start.p0(i64 8, ptr %3) #5
  %14 = load ptr, ptr %2, align 8, !tbaa !8
  store ptr %14, ptr %3, align 8, !tbaa !10
  call void @llvm.lifetime.start.p0(i64 2, ptr %4) #5
  %15 = load ptr, ptr %3, align 8, !tbaa !10
  %16 = getelementptr inbounds nuw %struct._lv_file_explorer_t, ptr %15, i32 0, i32 4
  %17 = load ptr, ptr %16, align 8, !tbaa !34
  %18 = call i32 @lv_table_get_row_count(ptr noundef %17)
  %19 = trunc i32 %18 to i16
  store i16 %19, ptr %4, align 2, !tbaa !39
  %20 = load i16, ptr %4, align 2, !tbaa !39
  %21 = zext i16 %20 to i32
  %22 = icmp sgt i32 %21, 1
  br i1 %22, label %23, label %37

23:                                               ; preds = %13
  %24 = load ptr, ptr %3, align 8, !tbaa !10
  %25 = getelementptr inbounds nuw %struct._lv_file_explorer_t, ptr %24, i32 0, i32 17
  %26 = load i32, ptr %25, align 8, !tbaa !26
  switch i32 %26, label %35 [
    i32 0, label %36
    i32 1, label %27
  ]

27:                                               ; preds = %23
  %28 = load ptr, ptr %3, align 8, !tbaa !10
  %29 = getelementptr inbounds nuw %struct._lv_file_explorer_t, ptr %28, i32 0, i32 4
  %30 = load ptr, ptr %29, align 8, !tbaa !34
  %31 = load i16, ptr %4, align 2, !tbaa !39
  %32 = zext i16 %31 to i32
  %33 = sub nsw i32 %32, 1
  %34 = trunc i32 %33 to i16
  call void @sort_by_file_kind(ptr noundef %30, i16 noundef signext 0, i16 noundef signext %34)
  br label %36

35:                                               ; preds = %23
  br label %36

36:                                               ; preds = %35, %27, %23
  br label %37

37:                                               ; preds = %36, %13
  call void @llvm.lifetime.end.p0(i64 2, ptr %4) #5
  call void @llvm.lifetime.end.p0(i64 8, ptr %3) #5
  ret void
}

; Function Attrs: nounwind uwtable
define void @lv_file_explorer_set_sort(ptr noundef %0, i32 noundef %1) #0 {
  %3 = alloca ptr, align 8
  %4 = alloca i32, align 4
  %5 = alloca ptr, align 8
  store ptr %0, ptr %3, align 8, !tbaa !8
  store i32 %1, ptr %4, align 4, !tbaa !35
  br label %6

6:                                                ; preds = %2
  %7 = load ptr, ptr %3, align 8, !tbaa !8
  %8 = icmp ne ptr %7, null
  br i1 %8, label %13, label %9

9:                                                ; preds = %6
  br label %10

10:                                               ; preds = %9
  br label %11

11:                                               ; preds = %10
  br label %12

12:                                               ; preds = %11, %12
  br label %12

13:                                               ; preds = %6
  br label %14

14:                                               ; preds = %13
  call void @llvm.lifetime.start.p0(i64 8, ptr %5) #5
  %15 = load ptr, ptr %3, align 8, !tbaa !8
  store ptr %15, ptr %5, align 8, !tbaa !10
  %16 = load i32, ptr %4, align 4, !tbaa !35
  %17 = load ptr, ptr %5, align 8, !tbaa !10
  %18 = getelementptr inbounds nuw %struct._lv_file_explorer_t, ptr %17, i32 0, i32 17
  store i32 %16, ptr %18, align 8, !tbaa !26
  %19 = load ptr, ptr %3, align 8, !tbaa !8
  call void @file_explorer_sort(ptr noundef %19)
  call void @llvm.lifetime.end.p0(i64 8, ptr %5) #5
  ret void
}