; Function Attrs: nounwind uwtable
define void @lv_file_explorer_set_sort(ptr noundef captures(address_is_null) %0, i32 noundef %1) local_unnamed_addr #0 {
  %.not = icmp eq ptr %0, null
  br i1 %.not, label %.preheader, label %3

.preheader:                                       ; preds = %2, %.preheader
  br label %.preheader

3:                                                ; preds = %2
  %4 = getelementptr inbounds nuw i8, ptr %0, i64 312
  store i32 %1, ptr %4, align 8, !tbaa !3
  %5 = getelementptr inbounds nuw i8, ptr %0, i64 88
  %6 = load ptr, ptr %5, align 8, !tbaa !24
  %7 = tail call i32 @lv_table_get_row_count(ptr noundef %6) #6
  %8 = and i32 %7, 65534
  %.not7.i = icmp eq i32 %8, 0
  br i1 %.not7.i, label %file_explorer_sort.exit, label %9

9:                                                ; preds = %3
  %10 = load i32, ptr %4, align 8, !tbaa !3
  %cond.i = icmp eq i32 %10, 1
  br i1 %cond.i, label %11, label %file_explorer_sort.exit

11:                                               ; preds = %9
  %12 = load ptr, ptr %5, align 8, !tbaa !24
  %13 = trunc i32 %7 to i16
  %14 = add i16 %13, -1
  tail call fastcc void @sort_by_file_kind(ptr noundef %12, i16 noundef signext 0, i16 noundef signext %14)
  br label %file_explorer_sort.exit

file_explorer_sort.exit:                          ; preds = %3, %9, %11
  ret void
}